; Function Attrs: nounwind uwtable
define internal void @HIDAPI_DriverPS5_CloseJoystick(ptr noundef readonly captures(none) %0, ptr readnone captures(none) %1) #0 {
  %3 = getelementptr inbounds nuw i8, ptr %0, i64 112
  %4 = load ptr, ptr %3, align 8
  tail call void @SDL_RemoveHintCallback_REAL(ptr noundef nonnull @.str.7, ptr noundef nonnull @SDL_PS5EnhancedReportsChanged, ptr noundef %4) #9
  tail call void @SDL_RemoveHintCallback_REAL(ptr noundef nonnull @.str.6, ptr noundef nonnull @SDL_PS5PlayerLEDHintChanged, ptr noundef %4) #9
  %5 = getelementptr inbounds nuw i8, ptr %4, i64 8
  store ptr null, ptr %5, align 8
  %6 = getelementptr inbounds nuw i8, ptr %4, i64 31
  store i8 0, ptr %6, align 1
  %7 = getelementptr inbounds nuw i8, ptr %4, i64 29
  store i8 0, ptr %7, align 1
  %8 = getelementptr inbounds nuw i8, ptr %4, i64 30
  store i8 0, ptr %8, align 2
  ret void
}